; Function Attrs: mustprogress nofree norecurse nosync nounwind willreturn memory(readwrite, inaccessiblemem: none) uwtable
define internal void @cleanup1_doall(ptr noundef readonly captures(none) %0) #1 {
  %2 = getelementptr inbounds nuw i8, ptr %0, i64 8
  %3 = load ptr, ptr %2, align 8, !tbaa !9
  %4 = getelementptr inbounds nuw i8, ptr %3, i64 16
  store i32 0, ptr %4, align 8, !tbaa !13
  %5 = getelementptr inbounds nuw i8, ptr %3, i64 32
  %6 = load i32, ptr %5, align 8, !tbaa !16
  %7 = or i32 %6, 13
  store i32 %7, ptr %5, align 8, !tbaa !16
  ret void
}